; Function Attrs: mustprogress uwtable
define void @_ZN18OpenImageIO_v2_6_012ImageBufAlgo11from_OpenCVERKN2cv3MatENS_8TypeDescENS_3ROIEi(ptr noalias sret(%"class.OpenImageIO_v2_6_0::ImageBuf") align 8 %agg.result, ptr nocapture noundef nonnull readnone align 1 %mat, ptr nocapture noundef readnone %convert, ptr nocapture noundef readnone byval(%"struct.OpenImageIO_v2_6_0::ROI") align 8 %roi, i32 noundef %nthreads) local_unnamed_addr #5 personality ptr @__gxx_personality_v0 {
entry:
  %t.i.i.i.i = alloca %struct.timespec, align 8
  %logtime = alloca %"class.OpenImageIO_v2_6_0::pvt::LoggedTimer", align 8
  %0 = load i32, ptr @_ZN18OpenImageIO_v2_6_03pvt14oiio_log_timesE, align 4
  %tobool.not.i = icmp eq i32 %0, 0
  store i8 0, ptr %logtime, align 8
  %m_printdtr.i.i = getelementptr inbounds i8, ptr %logtime, i64 1
  store i8 0, ptr %m_printdtr.i.i, align 1
  %m_starttime.i.i = getelementptr inbounds i8, ptr %logtime, i64 8
  call void @llvm.memset.p0.i64(ptr noundef nonnull align 8 dereferenceable(24) %m_starttime.i.i, i8 0, i64 24, i1 false)
  br i1 %tobool.not.i, label %_ZN18OpenImageIO_v2_6_05TimerC2Eb.exit.i, label %_ZN18OpenImageIO_v2_6_05Timer5startEv.exit.i.i

_ZN18OpenImageIO_v2_6_05Timer5startEv.exit.i.i:   ; preds = %entry
  call void @llvm.lifetime.start.p0(i64 16, ptr nonnull %t.i.i.i.i)
  %call.i.i.i.i = call i32 @clock_gettime(i32 noundef 1, ptr noundef nonnull %t.i.i.i.i) #21
  %1 = load i64, ptr %t.i.i.i.i, align 8
  %mul.i.i.i.i = mul nsw i64 %1, 1000000000
  %tv_nsec.i.i.i.i = getelementptr inbounds i8, ptr %t.i.i.i.i, i64 8
  %2 = load i64, ptr %tv_nsec.i.i.i.i, align 8
  %add.i.i.i.i = add nsw i64 %mul.i.i.i.i, %2
  call void @llvm.lifetime.end.p0(i64 16, ptr nonnull %t.i.i.i.i)
  store i64 %add.i.i.i.i, ptr %m_starttime.i.i, align 8
  store i8 1, ptr %logtime, align 8
  br label %_ZN18OpenImageIO_v2_6_05TimerC2Eb.exit.i

_ZN18OpenImageIO_v2_6_05TimerC2Eb.exit.i:         ; preds = %_ZN18OpenImageIO_v2_6_05Timer5startEv.exit.i.i, %entry
  %m_name.i = getelementptr inbounds i8, ptr %logtime, i64 32
  call void @_ZNSt7__cxx1112basic_stringIcSt11char_traitsIcESaIcEEC1Ev(ptr noundef nonnull align 8 dereferenceable(32) %m_name.i) #21
  %m_count.i = getelementptr inbounds i8, ptr %logtime, i64 64
  store i32 1, ptr %m_count.i, align 8
  %3 = load i32, ptr @_ZN18OpenImageIO_v2_6_03pvt14oiio_log_timesE, align 4
  %tobool2.not.i = icmp eq i32 %3, 0
  br i1 %tobool2.not.i, label %_ZN18OpenImageIO_v2_6_03pvt11LoggedTimerC2ENS_17basic_string_viewIcSt11char_traitsIcEEE.exit, label %if.then.i

if.then.i:                                        ; preds = %_ZN18OpenImageIO_v2_6_05TimerC2Eb.exit.i
  %call4.i.i1.i = invoke noundef nonnull align 8 dereferenceable(32) ptr @_ZNSt7__cxx1112basic_stringIcSt11char_traitsIcESaIcEE6assignEPKcm(ptr noundef nonnull align 8 dereferenceable(32) %m_name.i, ptr noundef nonnull @.str.4, i64 noundef 16)
          to label %_ZN18OpenImageIO_v2_6_03pvt11LoggedTimerC2ENS_17basic_string_viewIcSt11char_traitsIcEEE.exit unwind label %lpad.i

common.resume:                                    ; preds = %ehcleanup, %lpad.i
  %common.resume.op = phi { ptr, i32 } [ %4, %lpad.i ], [ %.pn, %ehcleanup ]
  resume { ptr, i32 } %common.resume.op

lpad.i:                                           ; preds = %if.then.i
  %4 = landingpad { ptr, i32 }
          cleanup
  call void @_ZNSt7__cxx1112basic_stringIcSt11char_traitsIcESaIcEED1Ev(ptr noundef nonnull align 8 dereferenceable(32) %m_name.i) #21
  call void @_ZN18OpenImageIO_v2_6_05TimerD2Ev(ptr noundef nonnull align 8 dereferenceable(32) %logtime) #21
  br label %common.resume

_ZN18OpenImageIO_v2_6_03pvt11LoggedTimerC2ENS_17basic_string_viewIcSt11char_traitsIcEEE.exit: ; preds = %_ZN18OpenImageIO_v2_6_05TimerC2Eb.exit.i, %if.then.i
  invoke void @_ZN18OpenImageIO_v2_6_08ImageBufC1Ev(ptr noundef nonnull align 8 dereferenceable(16) %agg.result)
          to label %invoke.cont unwind label %lpad

invoke.cont:                                      ; preds = %_ZN18OpenImageIO_v2_6_03pvt11LoggedTimerC2ENS_17basic_string_viewIcSt11char_traitsIcEEE.exit
  invoke void @_ZNK18OpenImageIO_v2_6_08ImageBuf8errorfmtIJEEEvPKcDpRKT_(ptr noundef nonnull align 8 dereferenceable(16) %agg.result, ptr noundef nonnull @.str.5)
          to label %nrvo.skipdtor unwind label %lpad1

lpad:                                             ; preds = %_ZN18OpenImageIO_v2_6_03pvt11LoggedTimerC2ENS_17basic_string_viewIcSt11char_traitsIcEEE.exit
  %5 = landingpad { ptr, i32 }
          cleanup
  br label %ehcleanup

lpad1:                                            ; preds = %invoke.cont
  %6 = landingpad { ptr, i32 }
          cleanup
  call void @_ZN18OpenImageIO_v2_6_08ImageBufD1Ev(ptr noundef nonnull align 8 dereferenceable(16) %agg.result) #21
  br label %ehcleanup

nrvo.skipdtor:                                    ; preds = %invoke.cont
  call void @_ZN18OpenImageIO_v2_6_03pvt11LoggedTimerD2Ev(ptr noundef nonnull align 8 dereferenceable(68) %logtime) #21
  ret void

ehcleanup:                                        ; preds = %lpad1, %lpad
  %.pn = phi { ptr, i32 } [ %6, %lpad1 ], [ %5, %lpad ]
  call void @_ZN18OpenImageIO_v2_6_03pvt11LoggedTimerD2Ev(ptr noundef nonnull align 8 dereferenceable(68) %logtime) #21
  br label %common.resume
}